; ModuleID = '17/96.c'
source_filename = "17/96.c"
target datalayout = "e-m:e-p270:32:32-p271:32:32-p272:64:64-i64:64-f80:128-n8:16:32:64-S128"
target triple = "x86_64-pc-linux-gnu"

@.str = private unnamed_addr constant [3 x i8] c"%s\00", align 1
@.str.1 = private unnamed_addr constant [3 x i8] c"%d\00", align 1

; Function Attrs: noinline nounwind uwtable
define dso_local i32 @main() #0 {
  %1 = alloca i32, align 4
  %2 = alloca i32, align 4
  %3 = alloca i32, align 4
  %4 = alloca i32, align 4
  %5 = alloca i32, align 4
  %6 = alloca [101 x i8], align 16
  %7 = alloca [101 x i8], align 16
  store i32 0, i32* %1, align 4
  br label %8

8:                                                ; preds = %130, %0
  %9 = getelementptr inbounds [101 x i8], [101 x i8]* %6, i64 0, i64 0
  %10 = call i32 (i8*, ...) @__isoc99_scanf(i8* getelementptr inbounds ([3 x i8], [3 x i8]* @.str, i64 0, i64 0), i8* %9)
  %11 = icmp ne i32 %10, -1
  br i1 %11, label %12, label %135

12:                                               ; preds = %8
  %13 = getelementptr inbounds [101 x i8], [101 x i8]* %7, i64 0, i64 0
  %14 = getelementptr inbounds [101 x i8], [101 x i8]* %6, i64 0, i64 0
  %15 = call i8* @strcpy(i8* %13, i8* %14) #4
  store i32 0, i32* %2, align 4
  br label %16

16:                                               ; preds = %55, %12
  %17 = load i32, i32* %2, align 4
  %18 = sext i32 %17 to i64
  %19 = getelementptr inbounds [101 x i8], [101 x i8]* %7, i64 0, i64 0
  %20 = call i64 @strlen(i8* %19) #5
  %21 = icmp ult i64 %18, %20
  br i1 %21, label %22, label %58

22:                                               ; preds = %16
  %23 = load i32, i32* %2, align 4
  %24 = sext i32 %23 to i64
  %25 = getelementptr inbounds [101 x i8], [101 x i8]* %7, i64 0, i64 %24
  %26 = load i8, i8* %25, align 1
  %27 = sext i8 %26 to i32
  %28 = icmp sge i32 %27, 97
  br i1 %28, label %29, label %36

29:                                               ; preds = %22
  %30 = load i32, i32* %2, align 4
  %31 = sext i32 %30 to i64
  %32 = getelementptr inbounds [101 x i8], [101 x i8]* %7, i64 0, i64 %31
  %33 = load i8, i8* %32, align 1
  %34 = sext i8 %33 to i32
  %35 = icmp sle i32 %34, 122
  br i1 %35, label %50, label %36

36:                                               ; preds = %29, %22
  %37 = load i32, i32* %2, align 4
  %38 = sext i32 %37 to i64
  %39 = getelementptr inbounds [101 x i8], [101 x i8]* %7, i64 0, i64 %38
  %40 = load i8, i8* %39, align 1
  %41 = sext i8 %40 to i32
  %42 = icmp sge i32 %41, 65
  br i1 %42, label %43, label %54

43:                                               ; preds = %36
  %44 = load i32, i32* %2, align 4
  %45 = sext i32 %44 to i64
  %46 = getelementptr inbounds [101 x i8], [101 x i8]* %7, i64 0, i64 %45
  %47 = load i8, i8* %46, align 1
  %48 = sext i8 %47 to i32
  %49 = icmp sle i32 %48, 90
  br i1 %49, label %50, label %54

50:                                               ; preds = %43, %29
  %51 = load i32, i32* %2, align 4
  %52 = sext i32 %51 to i64
  %53 = getelementptr inbounds [101 x i8], [101 x i8]* %7, i64 0, i64 %52
  store i8 32, i8* %53, align 1
  br label %54

54:                                               ; preds = %50, %43, %36
  br label %55

55:                                               ; preds = %54
  %56 = load i32, i32* %2, align 4
  %57 = add nsw i32 %56, 1
  store i32 %57, i32* %2, align 4
  br label %16

58:                                               ; preds = %16
  store i32 0, i32* %2, align 4
  br label %59

59:                                               ; preds = %105, %58
  %60 = load i32, i32* %2, align 4
  %61 = sext i32 %60 to i64
  %62 = getelementptr inbounds [101 x i8], [101 x i8]* %7, i64 0, i64 0
  %63 = call i64 @strlen(i8* %62) #5
  %64 = icmp ult i64 %61, %63
  br i1 %64, label %65, label %108

65:                                               ; preds = %59
  store i32 0, i32* %4, align 4
  %66 = load i32, i32* %2, align 4
  %67 = sext i32 %66 to i64
  %68 = getelementptr inbounds [101 x i8], [101 x i8]* %7, i64 0, i64 %67
  %69 = load i8, i8* %68, align 1
  %70 = sext i8 %69 to i32
  %71 = icmp eq i32 %70, 41
  br i1 %71, label %72, label %104

72:                                               ; preds = %65
  %73 = load i32, i32* %2, align 4
  %74 = sub nsw i32 %73, 1
  store i32 %74, i32* %3, align 4
  br label %75

75:                                               ; preds = %93, %72
  %76 = load i32, i32* %3, align 4
  %77 = icmp sge i32 %76, 0
  br i1 %77, label %78, label %96

78:                                               ; preds = %75
  %79 = load i32, i32* %3, align 4
  %80 = sext i32 %79 to i64
  %81 = getelementptr inbounds [101 x i8], [101 x i8]* %7, i64 0, i64 %80
  %82 = load i8, i8* %81, align 1
  %83 = sext i8 %82 to i32
  %84 = icmp eq i32 %83, 40
  br i1 %84, label %85, label %92

85:                                               ; preds = %78
  store i32 1, i32* %4, align 4
  %86 = load i32, i32* %3, align 4
  %87 = sext i32 %86 to i64
  %88 = getelementptr inbounds [101 x i8], [101 x i8]* %7, i64 0, i64 %87
  store i8 32, i8* %88, align 1
  %89 = load i32, i32* %2, align 4
  %90 = sext i32 %89 to i64
  %91 = getelementptr inbounds [101 x i8], [101 x i8]* %7, i64 0, i64 %90
  store i8 32, i8* %91, align 1
  br label %96

92:                                               ; preds = %78
  br label %93

93:                                               ; preds = %92
  %94 = load i32, i32* %3, align 4
  %95 = add nsw i32 %94, -1
  store i32 %95, i32* %3, align 4
  br label %75

96:                                               ; preds = %85, %75
  %97 = load i32, i32* %4, align 4
  %98 = icmp eq i32 %97, 0
  br i1 %98, label %99, label %103

99:                                               ; preds = %96
  %100 = load i32, i32* %2, align 4
  %101 = sext i32 %100 to i64
  %102 = getelementptr inbounds [101 x i8], [101 x i8]* %7, i64 0, i64 %101
  store i8 63, i8* %102, align 1
  br label %103

103:                                              ; preds = %99, %96
  br label %104

104:                                              ; preds = %103, %65
  br label %105

105:                                              ; preds = %104
  %106 = load i32, i32* %2, align 4
  %107 = add nsw i32 %106, 1
  store i32 %107, i32* %2, align 4
  br label %59

108:                                              ; preds = %59
  store i32 0, i32* %2, align 4
  br label %109

109:                                              ; preds = %127, %108
  %110 = load i32, i32* %2, align 4
  %111 = sext i32 %110 to i64
  %112 = getelementptr inbounds [101 x i8], [101 x i8]* %7, i64 0, i64 0
  %113 = call i64 @strlen(i8* %112) #5
  %114 = icmp ult i64 %111, %113
  br i1 %114, label %115, label %130

115:                                              ; preds = %109
  %116 = load i32, i32* %2, align 4
  %117 = sext i32 %116 to i64
  %118 = getelementptr inbounds [101 x i8], [101 x i8]* %7, i64 0, i64 %117
  %119 = load i8, i8* %118, align 1
  %120 = sext i8 %119 to i32
  %121 = icmp eq i32 %120, 40
  br i1 %121, label %122, label %126

122:                                              ; preds = %115
  %123 = load i32, i32* %2, align 4
  %124 = sext i32 %123 to i64
  %125 = getelementptr inbounds [101 x i8], [101 x i8]* %7, i64 0, i64 %124
  store i8 36, i8* %125, align 1
  br label %126

126:                                              ; preds = %122, %115
  br label %127

127:                                              ; preds = %126
  %128 = load i32, i32* %2, align 4
  %129 = add nsw i32 %128, 1
  store i32 %129, i32* %2, align 4
  br label %109

130:                                              ; preds = %109
  %131 = getelementptr inbounds [101 x i8], [101 x i8]* %6, i64 0, i64 0
  %132 = call i32 @puts(i8* %131)
  %133 = getelementptr inbounds [101 x i8], [101 x i8]* %7, i64 0, i64 0
  %134 = call i32 @puts(i8* %133)
  br label %8

135:                                              ; preds = %8
  %136 = call i32 (i8*, ...) @__isoc99_scanf(i8* getelementptr inbounds ([3 x i8], [3 x i8]* @.str.1, i64 0, i64 0), i32* %5)
  ret i32 0
}

declare dso_local i32 @__isoc99_scanf(i8*, ...) #1

; Function Attrs: nounwind
declare dso_local i8* @strcpy(i8*, i8*) #2

; Function Attrs: nounwind readonly
declare dso_local i64 @strlen(i8*) #3

declare dso_local i32 @puts(i8*) #1


!llvm.module.flags = !{!0}
!llvm.ident = !{!1}

!0 = !{i32 1, !"wchar_size", i32 4}
!1 = !{!"clang version 10.0.0-4ubuntu1 "}
